ARM GAS  /tmp/cc4aMnZF.s 			page 1


   1              		.cpu cortex-m4
   2              		.eabi_attribute 27, 1
   3              		.eabi_attribute 28, 1
   4              		.eabi_attribute 20, 1
   5              		.eabi_attribute 21, 1
   6              		.eabi_attribute 23, 3
   7              		.eabi_attribute 24, 1
   8              		.eabi_attribute 25, 1
   9              		.eabi_attribute 26, 1
  10              		.eabi_attribute 30, 1
  11              		.eabi_attribute 34, 1
  12              		.eabi_attribute 18, 4
  13              		.file	"usart.c"
  14              		.text
  15              	.Ltext0:
  16              		.cfi_sections	.debug_frame
  17              		.section	.text.MX_LPUART1_UART_Init,"ax",%progbits
  18              		.align	1
  19              		.global	MX_LPUART1_UART_Init
  20              		.arch armv7e-m
  21              		.syntax unified
  22              		.thumb
  23              		.thumb_func
  24              		.fpu fpv4-sp-d16
  26              	MX_LPUART1_UART_Init:
  27              	.LFB132:
  28              		.file 1 "Core/Src/usart.c"
   1:Core/Src/usart.c **** /**
   2:Core/Src/usart.c ****   ******************************************************************************
   3:Core/Src/usart.c ****   * File Name          : USART.c
   4:Core/Src/usart.c ****   * Description        : This file provides code for the configuration
   5:Core/Src/usart.c ****   *                      of the USART instances.
   6:Core/Src/usart.c ****   ******************************************************************************
   7:Core/Src/usart.c ****   * @attention
   8:Core/Src/usart.c ****   *
   9:Core/Src/usart.c ****   * <h2><center>&copy; Copyright (c) 2021 STMicroelectronics.
  10:Core/Src/usart.c ****   * All rights reserved.</center></h2>
  11:Core/Src/usart.c ****   *
  12:Core/Src/usart.c ****   * This software component is licensed by ST under BSD 3-Clause license,
  13:Core/Src/usart.c ****   * the "License"; You may not use this file except in compliance with the
  14:Core/Src/usart.c ****   * License. You may obtain a copy of the License at:
  15:Core/Src/usart.c ****   *                        opensource.org/licenses/BSD-3-Clause
  16:Core/Src/usart.c ****   *
  17:Core/Src/usart.c ****   ******************************************************************************
  18:Core/Src/usart.c ****   */
  19:Core/Src/usart.c **** 
  20:Core/Src/usart.c **** /* Includes ------------------------------------------------------------------*/
  21:Core/Src/usart.c **** #include "usart.h"
  22:Core/Src/usart.c **** 
  23:Core/Src/usart.c **** /* USER CODE BEGIN 0 */
  24:Core/Src/usart.c **** 
  25:Core/Src/usart.c **** /* USER CODE END 0 */
  26:Core/Src/usart.c **** 
  27:Core/Src/usart.c **** UART_HandleTypeDef hlpuart1;
  28:Core/Src/usart.c **** 
  29:Core/Src/usart.c **** /* LPUART1 init function */
  30:Core/Src/usart.c **** 
ARM GAS  /tmp/cc4aMnZF.s 			page 2


  31:Core/Src/usart.c **** void MX_LPUART1_UART_Init(void)
  32:Core/Src/usart.c **** {
  29              		.loc 1 32 1 view -0
  30              		.cfi_startproc
  31              		@ args = 0, pretend = 0, frame = 0
  32              		@ frame_needed = 0, uses_anonymous_args = 0
  33 0000 08B5     		push	{r3, lr}
  34              	.LCFI0:
  35              		.cfi_def_cfa_offset 8
  36              		.cfi_offset 3, -8
  37              		.cfi_offset 14, -4
  33:Core/Src/usart.c **** 
  34:Core/Src/usart.c ****   hlpuart1.Instance = LPUART1;
  38              		.loc 1 34 3 view .LVU1
  39              		.loc 1 34 21 is_stmt 0 view .LVU2
  40 0002 1648     		ldr	r0, .L11
  41 0004 164B     		ldr	r3, .L11+4
  42 0006 0360     		str	r3, [r0]
  35:Core/Src/usart.c ****   hlpuart1.Init.BaudRate = 115200;
  43              		.loc 1 35 3 is_stmt 1 view .LVU3
  44              		.loc 1 35 26 is_stmt 0 view .LVU4
  45 0008 4FF4E133 		mov	r3, #115200
  46 000c 4360     		str	r3, [r0, #4]
  36:Core/Src/usart.c ****   hlpuart1.Init.WordLength = UART_WORDLENGTH_8B;
  47              		.loc 1 36 3 is_stmt 1 view .LVU5
  48              		.loc 1 36 28 is_stmt 0 view .LVU6
  49 000e 0023     		movs	r3, #0
  50 0010 8360     		str	r3, [r0, #8]
  37:Core/Src/usart.c ****   hlpuart1.Init.StopBits = UART_STOPBITS_1;
  51              		.loc 1 37 3 is_stmt 1 view .LVU7
  52              		.loc 1 37 26 is_stmt 0 view .LVU8
  53 0012 C360     		str	r3, [r0, #12]
  38:Core/Src/usart.c ****   hlpuart1.Init.Parity = UART_PARITY_NONE;
  54              		.loc 1 38 3 is_stmt 1 view .LVU9
  55              		.loc 1 38 24 is_stmt 0 view .LVU10
  56 0014 0361     		str	r3, [r0, #16]
  39:Core/Src/usart.c ****   hlpuart1.Init.Mode = UART_MODE_TX_RX;
  57              		.loc 1 39 3 is_stmt 1 view .LVU11
  58              		.loc 1 39 22 is_stmt 0 view .LVU12
  59 0016 0C22     		movs	r2, #12
  60 0018 4261     		str	r2, [r0, #20]
  40:Core/Src/usart.c ****   hlpuart1.Init.HwFlowCtl = UART_HWCONTROL_NONE;
  61              		.loc 1 40 3 is_stmt 1 view .LVU13
  62              		.loc 1 40 27 is_stmt 0 view .LVU14
  63 001a 8361     		str	r3, [r0, #24]
  41:Core/Src/usart.c ****   hlpuart1.Init.OneBitSampling = UART_ONE_BIT_SAMPLE_DISABLE;
  64              		.loc 1 41 3 is_stmt 1 view .LVU15
  65              		.loc 1 41 32 is_stmt 0 view .LVU16
  66 001c 0362     		str	r3, [r0, #32]
  42:Core/Src/usart.c ****   hlpuart1.AdvancedInit.AdvFeatureInit = UART_ADVFEATURE_NO_INIT;
  67              		.loc 1 42 3 is_stmt 1 view .LVU17
  68              		.loc 1 42 40 is_stmt 0 view .LVU18
  69 001e 8362     		str	r3, [r0, #40]
  43:Core/Src/usart.c ****   if (HAL_UART_Init(&hlpuart1) != HAL_OK)
  70              		.loc 1 43 3 is_stmt 1 view .LVU19
  71              		.loc 1 43 7 is_stmt 0 view .LVU20
  72 0020 FFF7FEFF 		bl	HAL_UART_Init
ARM GAS  /tmp/cc4aMnZF.s 			page 3


  73              	.LVL0:
  74              		.loc 1 43 6 view .LVU21
  75 0024 70B9     		cbnz	r0, .L7
  76              	.L2:
  44:Core/Src/usart.c ****   {
  45:Core/Src/usart.c ****     Error_Handler();
  46:Core/Src/usart.c ****   }
  47:Core/Src/usart.c ****   if (HAL_UARTEx_SetTxFifoThreshold(&hlpuart1, UART_TXFIFO_THRESHOLD_1_8) != HAL_OK)
  77              		.loc 1 47 3 is_stmt 1 view .LVU22
  78              		.loc 1 47 7 is_stmt 0 view .LVU23
  79 0026 0021     		movs	r1, #0
  80 0028 0C48     		ldr	r0, .L11
  81 002a FFF7FEFF 		bl	HAL_UARTEx_SetTxFifoThreshold
  82              	.LVL1:
  83              		.loc 1 47 6 view .LVU24
  84 002e 60B9     		cbnz	r0, .L8
  85              	.L3:
  48:Core/Src/usart.c ****   {
  49:Core/Src/usart.c ****     Error_Handler();
  50:Core/Src/usart.c ****   }
  51:Core/Src/usart.c ****   if (HAL_UARTEx_SetRxFifoThreshold(&hlpuart1, UART_RXFIFO_THRESHOLD_1_8) != HAL_OK)
  86              		.loc 1 51 3 is_stmt 1 view .LVU25
  87              		.loc 1 51 7 is_stmt 0 view .LVU26
  88 0030 0021     		movs	r1, #0
  89 0032 0A48     		ldr	r0, .L11
  90 0034 FFF7FEFF 		bl	HAL_UARTEx_SetRxFifoThreshold
  91              	.LVL2:
  92              		.loc 1 51 6 view .LVU27
  93 0038 50B9     		cbnz	r0, .L9
  94              	.L4:
  52:Core/Src/usart.c ****   {
  53:Core/Src/usart.c ****     Error_Handler();
  54:Core/Src/usart.c ****   }
  55:Core/Src/usart.c ****   if (HAL_UARTEx_DisableFifoMode(&hlpuart1) != HAL_OK)
  95              		.loc 1 55 3 is_stmt 1 view .LVU28
  96              		.loc 1 55 7 is_stmt 0 view .LVU29
  97 003a 0848     		ldr	r0, .L11
  98 003c FFF7FEFF 		bl	HAL_UARTEx_DisableFifoMode
  99              	.LVL3:
 100              		.loc 1 55 6 view .LVU30
 101 0040 48B9     		cbnz	r0, .L10
 102              	.L1:
  56:Core/Src/usart.c ****   {
  57:Core/Src/usart.c ****     Error_Handler();
  58:Core/Src/usart.c ****   }
  59:Core/Src/usart.c **** 
  60:Core/Src/usart.c **** }
 103              		.loc 1 60 1 view .LVU31
 104 0042 08BD     		pop	{r3, pc}
 105              	.L7:
  45:Core/Src/usart.c ****   }
 106              		.loc 1 45 5 is_stmt 1 view .LVU32
 107 0044 FFF7FEFF 		bl	Error_Handler
 108              	.LVL4:
 109 0048 EDE7     		b	.L2
 110              	.L8:
  49:Core/Src/usart.c ****   }
ARM GAS  /tmp/cc4aMnZF.s 			page 4


 111              		.loc 1 49 5 view .LVU33
 112 004a FFF7FEFF 		bl	Error_Handler
 113              	.LVL5:
 114 004e EFE7     		b	.L3
 115              	.L9:
  53:Core/Src/usart.c ****   }
 116              		.loc 1 53 5 view .LVU34
 117 0050 FFF7FEFF 		bl	Error_Handler
 118              	.LVL6:
 119 0054 F1E7     		b	.L4
 120              	.L10:
  57:Core/Src/usart.c ****   }
 121              		.loc 1 57 5 view .LVU35
 122 0056 FFF7FEFF 		bl	Error_Handler
 123              	.LVL7:
 124              		.loc 1 60 1 is_stmt 0 view .LVU36
 125 005a F2E7     		b	.L1
 126              	.L12:
 127              		.align	2
 128              	.L11:
 129 005c 00000000 		.word	hlpuart1
 130 0060 00800040 		.word	1073774592
 131              		.cfi_endproc
 132              	.LFE132:
 134              		.section	.text.HAL_UART_MspInit,"ax",%progbits
 135              		.align	1
 136              		.global	HAL_UART_MspInit
 137              		.syntax unified
 138              		.thumb
 139              		.thumb_func
 140              		.fpu fpv4-sp-d16
 142              	HAL_UART_MspInit:
 143              	.LVL8:
 144              	.LFB133:
  61:Core/Src/usart.c **** 
  62:Core/Src/usart.c **** void HAL_UART_MspInit(UART_HandleTypeDef* uartHandle)
  63:Core/Src/usart.c **** {
 145              		.loc 1 63 1 is_stmt 1 view -0
 146              		.cfi_startproc
 147              		@ args = 0, pretend = 0, frame = 32
 148              		@ frame_needed = 0, uses_anonymous_args = 0
 149              		.loc 1 63 1 is_stmt 0 view .LVU38
 150 0000 00B5     		push	{lr}
 151              	.LCFI1:
 152              		.cfi_def_cfa_offset 4
 153              		.cfi_offset 14, -4
 154 0002 89B0     		sub	sp, sp, #36
 155              	.LCFI2:
 156              		.cfi_def_cfa_offset 40
  64:Core/Src/usart.c **** 
  65:Core/Src/usart.c ****   GPIO_InitTypeDef GPIO_InitStruct = {0};
 157              		.loc 1 65 3 is_stmt 1 view .LVU39
 158              		.loc 1 65 20 is_stmt 0 view .LVU40
 159 0004 0023     		movs	r3, #0
 160 0006 0393     		str	r3, [sp, #12]
 161 0008 0493     		str	r3, [sp, #16]
 162 000a 0593     		str	r3, [sp, #20]
ARM GAS  /tmp/cc4aMnZF.s 			page 5


 163 000c 0693     		str	r3, [sp, #24]
 164 000e 0793     		str	r3, [sp, #28]
  66:Core/Src/usart.c ****   if(uartHandle->Instance==LPUART1)
 165              		.loc 1 66 3 is_stmt 1 view .LVU41
 166              		.loc 1 66 16 is_stmt 0 view .LVU42
 167 0010 0268     		ldr	r2, [r0]
 168              		.loc 1 66 5 view .LVU43
 169 0012 144B     		ldr	r3, .L17
 170 0014 9A42     		cmp	r2, r3
 171 0016 02D0     		beq	.L16
 172              	.LVL9:
 173              	.L13:
  67:Core/Src/usart.c ****   {
  68:Core/Src/usart.c ****   /* USER CODE BEGIN LPUART1_MspInit 0 */
  69:Core/Src/usart.c **** 
  70:Core/Src/usart.c ****   /* USER CODE END LPUART1_MspInit 0 */
  71:Core/Src/usart.c ****     /* LPUART1 clock enable */
  72:Core/Src/usart.c ****     __HAL_RCC_LPUART1_CLK_ENABLE();
  73:Core/Src/usart.c **** 
  74:Core/Src/usart.c ****     __HAL_RCC_GPIOA_CLK_ENABLE();
  75:Core/Src/usart.c ****     /**LPUART1 GPIO Configuration
  76:Core/Src/usart.c ****     PA2     ------> LPUART1_TX
  77:Core/Src/usart.c ****     PA3     ------> LPUART1_RX
  78:Core/Src/usart.c ****     */
  79:Core/Src/usart.c ****     GPIO_InitStruct.Pin = GPIO_PIN_2|GPIO_PIN_3;
  80:Core/Src/usart.c ****     GPIO_InitStruct.Mode = GPIO_MODE_AF_PP;
  81:Core/Src/usart.c ****     GPIO_InitStruct.Pull = GPIO_NOPULL;
  82:Core/Src/usart.c ****     GPIO_InitStruct.Speed = GPIO_SPEED_FREQ_LOW;
  83:Core/Src/usart.c ****     GPIO_InitStruct.Alternate = GPIO_AF12_LPUART1;
  84:Core/Src/usart.c ****     HAL_GPIO_Init(GPIOA, &GPIO_InitStruct);
  85:Core/Src/usart.c **** 
  86:Core/Src/usart.c ****   /* USER CODE BEGIN LPUART1_MspInit 1 */
  87:Core/Src/usart.c **** 
  88:Core/Src/usart.c ****   /* USER CODE END LPUART1_MspInit 1 */
  89:Core/Src/usart.c ****   }
  90:Core/Src/usart.c **** }
 174              		.loc 1 90 1 view .LVU44
 175 0018 09B0     		add	sp, sp, #36
 176              	.LCFI3:
 177              		.cfi_remember_state
 178              		.cfi_def_cfa_offset 4
 179              		@ sp needed
 180 001a 5DF804FB 		ldr	pc, [sp], #4
 181              	.LVL10:
 182              	.L16:
 183              	.LCFI4:
 184              		.cfi_restore_state
  72:Core/Src/usart.c **** 
 185              		.loc 1 72 5 is_stmt 1 view .LVU45
 186              	.LBB2:
  72:Core/Src/usart.c **** 
 187              		.loc 1 72 5 view .LVU46
  72:Core/Src/usart.c **** 
 188              		.loc 1 72 5 view .LVU47
 189 001e 03F5C833 		add	r3, r3, #102400
 190 0022 DA6D     		ldr	r2, [r3, #92]
 191 0024 42F00102 		orr	r2, r2, #1
ARM GAS  /tmp/cc4aMnZF.s 			page 6


 192 0028 DA65     		str	r2, [r3, #92]
  72:Core/Src/usart.c **** 
 193              		.loc 1 72 5 view .LVU48
 194 002a DA6D     		ldr	r2, [r3, #92]
 195 002c 02F00102 		and	r2, r2, #1
 196 0030 0192     		str	r2, [sp, #4]
  72:Core/Src/usart.c **** 
 197              		.loc 1 72 5 view .LVU49
 198 0032 019A     		ldr	r2, [sp, #4]
 199              	.LBE2:
  72:Core/Src/usart.c **** 
 200              		.loc 1 72 5 view .LVU50
  74:Core/Src/usart.c ****     /**LPUART1 GPIO Configuration
 201              		.loc 1 74 5 view .LVU51
 202              	.LBB3:
  74:Core/Src/usart.c ****     /**LPUART1 GPIO Configuration
 203              		.loc 1 74 5 view .LVU52
  74:Core/Src/usart.c ****     /**LPUART1 GPIO Configuration
 204              		.loc 1 74 5 view .LVU53
 205 0034 DA6C     		ldr	r2, [r3, #76]
 206 0036 42F00102 		orr	r2, r2, #1
 207 003a DA64     		str	r2, [r3, #76]
  74:Core/Src/usart.c ****     /**LPUART1 GPIO Configuration
 208              		.loc 1 74 5 view .LVU54
 209 003c DB6C     		ldr	r3, [r3, #76]
 210 003e 03F00103 		and	r3, r3, #1
 211 0042 0293     		str	r3, [sp, #8]
  74:Core/Src/usart.c ****     /**LPUART1 GPIO Configuration
 212              		.loc 1 74 5 view .LVU55
 213 0044 029B     		ldr	r3, [sp, #8]
 214              	.LBE3:
  74:Core/Src/usart.c ****     /**LPUART1 GPIO Configuration
 215              		.loc 1 74 5 view .LVU56
  79:Core/Src/usart.c ****     GPIO_InitStruct.Mode = GPIO_MODE_AF_PP;
 216              		.loc 1 79 5 view .LVU57
  79:Core/Src/usart.c ****     GPIO_InitStruct.Mode = GPIO_MODE_AF_PP;
 217              		.loc 1 79 25 is_stmt 0 view .LVU58
 218 0046 0C23     		movs	r3, #12
 219 0048 0393     		str	r3, [sp, #12]
  80:Core/Src/usart.c ****     GPIO_InitStruct.Pull = GPIO_NOPULL;
 220              		.loc 1 80 5 is_stmt 1 view .LVU59
  80:Core/Src/usart.c ****     GPIO_InitStruct.Pull = GPIO_NOPULL;
 221              		.loc 1 80 26 is_stmt 0 view .LVU60
 222 004a 0222     		movs	r2, #2
 223 004c 0492     		str	r2, [sp, #16]
  81:Core/Src/usart.c ****     GPIO_InitStruct.Speed = GPIO_SPEED_FREQ_LOW;
 224              		.loc 1 81 5 is_stmt 1 view .LVU61
  81:Core/Src/usart.c ****     GPIO_InitStruct.Speed = GPIO_SPEED_FREQ_LOW;
 225              		.loc 1 81 26 is_stmt 0 view .LVU62
 226 004e 0022     		movs	r2, #0
 227 0050 0592     		str	r2, [sp, #20]
  82:Core/Src/usart.c ****     GPIO_InitStruct.Alternate = GPIO_AF12_LPUART1;
 228              		.loc 1 82 5 is_stmt 1 view .LVU63
  82:Core/Src/usart.c ****     GPIO_InitStruct.Alternate = GPIO_AF12_LPUART1;
 229              		.loc 1 82 27 is_stmt 0 view .LVU64
 230 0052 0692     		str	r2, [sp, #24]
  83:Core/Src/usart.c ****     HAL_GPIO_Init(GPIOA, &GPIO_InitStruct);
ARM GAS  /tmp/cc4aMnZF.s 			page 7


 231              		.loc 1 83 5 is_stmt 1 view .LVU65
  83:Core/Src/usart.c ****     HAL_GPIO_Init(GPIOA, &GPIO_InitStruct);
 232              		.loc 1 83 31 is_stmt 0 view .LVU66
 233 0054 0793     		str	r3, [sp, #28]
  84:Core/Src/usart.c **** 
 234              		.loc 1 84 5 is_stmt 1 view .LVU67
 235 0056 0DEB0301 		add	r1, sp, r3
 236 005a 4FF09040 		mov	r0, #1207959552
 237              	.LVL11:
  84:Core/Src/usart.c **** 
 238              		.loc 1 84 5 is_stmt 0 view .LVU68
 239 005e FFF7FEFF 		bl	HAL_GPIO_Init
 240              	.LVL12:
 241              		.loc 1 90 1 view .LVU69
 242 0062 D9E7     		b	.L13
 243              	.L18:
 244              		.align	2
 245              	.L17:
 246 0064 00800040 		.word	1073774592
 247              		.cfi_endproc
 248              	.LFE133:
 250              		.section	.text.HAL_UART_MspDeInit,"ax",%progbits
 251              		.align	1
 252              		.global	HAL_UART_MspDeInit
 253              		.syntax unified
 254              		.thumb
 255              		.thumb_func
 256              		.fpu fpv4-sp-d16
 258              	HAL_UART_MspDeInit:
 259              	.LVL13:
 260              	.LFB134:
  91:Core/Src/usart.c **** 
  92:Core/Src/usart.c **** void HAL_UART_MspDeInit(UART_HandleTypeDef* uartHandle)
  93:Core/Src/usart.c **** {
 261              		.loc 1 93 1 is_stmt 1 view -0
 262              		.cfi_startproc
 263              		@ args = 0, pretend = 0, frame = 0
 264              		@ frame_needed = 0, uses_anonymous_args = 0
 265              		.loc 1 93 1 is_stmt 0 view .LVU71
 266 0000 08B5     		push	{r3, lr}
 267              	.LCFI5:
 268              		.cfi_def_cfa_offset 8
 269              		.cfi_offset 3, -8
 270              		.cfi_offset 14, -4
  94:Core/Src/usart.c **** 
  95:Core/Src/usart.c ****   if(uartHandle->Instance==LPUART1)
 271              		.loc 1 95 3 is_stmt 1 view .LVU72
 272              		.loc 1 95 16 is_stmt 0 view .LVU73
 273 0002 0268     		ldr	r2, [r0]
 274              		.loc 1 95 5 view .LVU74
 275 0004 074B     		ldr	r3, .L23
 276 0006 9A42     		cmp	r2, r3
 277 0008 00D0     		beq	.L22
 278              	.LVL14:
 279              	.L19:
  96:Core/Src/usart.c ****   {
  97:Core/Src/usart.c ****   /* USER CODE BEGIN LPUART1_MspDeInit 0 */
ARM GAS  /tmp/cc4aMnZF.s 			page 8


  98:Core/Src/usart.c **** 
  99:Core/Src/usart.c ****   /* USER CODE END LPUART1_MspDeInit 0 */
 100:Core/Src/usart.c ****     /* Peripheral clock disable */
 101:Core/Src/usart.c ****     __HAL_RCC_LPUART1_CLK_DISABLE();
 102:Core/Src/usart.c **** 
 103:Core/Src/usart.c ****     /**LPUART1 GPIO Configuration
 104:Core/Src/usart.c ****     PA2     ------> LPUART1_TX
 105:Core/Src/usart.c ****     PA3     ------> LPUART1_RX
 106:Core/Src/usart.c ****     */
 107:Core/Src/usart.c ****     HAL_GPIO_DeInit(GPIOA, GPIO_PIN_2|GPIO_PIN_3);
 108:Core/Src/usart.c **** 
 109:Core/Src/usart.c ****   /* USER CODE BEGIN LPUART1_MspDeInit 1 */
 110:Core/Src/usart.c **** 
 111:Core/Src/usart.c ****   /* USER CODE END LPUART1_MspDeInit 1 */
 112:Core/Src/usart.c ****   }
 113:Core/Src/usart.c **** }
 280              		.loc 1 113 1 view .LVU75
 281 000a 08BD     		pop	{r3, pc}
 282              	.LVL15:
 283              	.L22:
 101:Core/Src/usart.c **** 
 284              		.loc 1 101 5 is_stmt 1 view .LVU76
 285 000c 064A     		ldr	r2, .L23+4
 286 000e D36D     		ldr	r3, [r2, #92]
 287 0010 23F00103 		bic	r3, r3, #1
 288 0014 D365     		str	r3, [r2, #92]
 107:Core/Src/usart.c **** 
 289              		.loc 1 107 5 view .LVU77
 290 0016 0C21     		movs	r1, #12
 291 0018 4FF09040 		mov	r0, #1207959552
 292              	.LVL16:
 107:Core/Src/usart.c **** 
 293              		.loc 1 107 5 is_stmt 0 view .LVU78
 294 001c FFF7FEFF 		bl	HAL_GPIO_DeInit
 295              	.LVL17:
 296              		.loc 1 113 1 view .LVU79
 297 0020 F3E7     		b	.L19
 298              	.L24:
 299 0022 00BF     		.align	2
 300              	.L23:
 301 0024 00800040 		.word	1073774592
 302 0028 00100240 		.word	1073876992
 303              		.cfi_endproc
 304              	.LFE134:
 306              		.comm	hlpuart1,140,4
 307              		.text
 308              	.Letext0:
 309              		.file 2 "/usr/lib/gcc/arm-none-eabi/9.2.1/include/stdint.h"
 310              		.file 3 "Drivers/CMSIS/Include/core_cm4.h"
 311              		.file 4 "Drivers/CMSIS/Device/ST/STM32G4xx/Include/system_stm32g4xx.h"
 312              		.file 5 "Drivers/CMSIS/Device/ST/STM32G4xx/Include/stm32g474xx.h"
 313              		.file 6 "Drivers/STM32G4xx_HAL_Driver/Inc/stm32g4xx_hal_def.h"
 314              		.file 7 "Drivers/STM32G4xx_HAL_Driver/Inc/stm32g4xx_hal_gpio.h"
 315              		.file 8 "Drivers/STM32G4xx_HAL_Driver/Inc/stm32g4xx_hal_dma.h"
 316              		.file 9 "Drivers/STM32G4xx_HAL_Driver/Inc/stm32g4xx_hal_flash.h"
 317              		.file 10 "Drivers/STM32G4xx_HAL_Driver/Inc/stm32g4xx_hal_uart.h"
 318              		.file 11 "Drivers/STM32G4xx_HAL_Driver/Inc/stm32g4xx_hal.h"
ARM GAS  /tmp/cc4aMnZF.s 			page 9


 319              		.file 12 "Core/Inc/usart.h"
 320              		.file 13 "Drivers/STM32G4xx_HAL_Driver/Inc/stm32g4xx_hal_uart_ex.h"
 321              		.file 14 "Core/Inc/main.h"
ARM GAS  /tmp/cc4aMnZF.s 			page 10

